; Function Attrs: mustprogress nofree nounwind willreturn memory(write, argmem: readwrite) uwtable
define hidden void @_ZN2cv6detail8tracking15online_boosting26EstimatedGaussDistribution6updateEf(ptr noundef nonnull align 8 captures(none) dereferenceable(32) %0, float noundef %1) local_unnamed_addr #18 align 2 {
  %3 = getelementptr inbounds nuw i8, ptr %0, i64 16
  %4 = load float, ptr %3, align 8, !tbaa !124
  %5 = getelementptr inbounds nuw i8, ptr %0, i64 24
  %6 = load float, ptr %5, align 8, !tbaa !126
  %7 = fadd float %4, %6
  %8 = fdiv float %4, %7
  %9 = fcmp olt float %8, 0x3F50624DE0000000
  %.0 = select i1 %9, float 0x3F50624DE0000000, float %8
  %10 = fsub float 1.000000e+00, %.0
  %11 = getelementptr inbounds nuw i8, ptr %0, i64 8
  %12 = load float, ptr %11, align 8, !tbaa !127
  %13 = fmul float %12, %10
  %14 = tail call float @llvm.fmuladd.f32(float %.0, float %1, float %13)
  store float %14, ptr %11, align 8, !tbaa !127
  %15 = fmul float %4, %6
  %16 = fdiv float %15, %7
  store float %16, ptr %3, align 8, !tbaa !124
  %17 = getelementptr inbounds nuw i8, ptr %0, i64 20
  %18 = load float, ptr %17, align 4, !tbaa !128
  %19 = getelementptr inbounds nuw i8, ptr %0, i64 28
  %20 = load float, ptr %19, align 4, !tbaa !129
  %21 = fadd float %18, %20
  %22 = fdiv float %18, %21
  %23 = fcmp olt float %22, 0x3F50624DE0000000
  %.1 = select i1 %23, float 0x3F50624DE0000000, float %22
  %24 = fsub float %14, %1
  %25 = fmul float %24, %.1
  %26 = fsub float 1.000000e+00, %.1
  %27 = getelementptr inbounds nuw i8, ptr %0, i64 12
  %28 = load float, ptr %27, align 4, !tbaa !130
  %29 = fmul float %28, %26
  %30 = fmul float %28, %29
  %31 = tail call float @llvm.fmuladd.f32(float %25, float %24, float %30)
  %32 = fmul float %6, %18
  %33 = fdiv float %32, %21
  store float %33, ptr %17, align 4, !tbaa !128
  %34 = tail call noundef float @sqrtf(float noundef %31) #24, !tbaa !40
  %.inv = fcmp ole float %34, 1.000000e+00
  %storemerge = select i1 %.inv, float 1.000000e+00, float %34
  store float %storemerge, ptr %27, align 4, !tbaa !130
  ret void
}